target datalayout = "e-m:e-p270:32:32-p271:32:32-p272:64:64-i64:64-i128:128-f80:128-n8:16:32:64-S128"
target triple = "x86_64-unknown-linux-gnu"

%struct.btDbvt = type { ptr, ptr, i32, i32, i32, [4 x i8], %class.btAlignedObjectArray }
%class.btAlignedObjectArray = type <{ %class.btAlignedAllocator, [3 x i8], i32, i32, [4 x i8], ptr, i8, [7 x i8] }>
%class.btAlignedAllocator = type { i8 }

; Function Attrs: mustprogress uwtable
define linkonce_odr dso_local void @_ZN18btAlignedAllocatorIN6btDbvt6sStkNNELj16EE10deallocateEPS1_(ptr noundef nonnull align 1 dereferenceable(1) %this, ptr noundef %ptr) #2 comdat align 2 {
entry:
  %this.addr = alloca ptr, align 8
  %ptr.addr = alloca ptr, align 8
  store ptr %this, ptr %this.addr, align 8
  store ptr %ptr, ptr %ptr.addr, align 8
  %0 = load ptr, ptr %ptr.addr, align 8
  call void @_Z21btAlignedFreeInternalPv(ptr noundef %0)
  ret void
}

; Function Attrs: mustprogress nounwind uwtable
define linkonce_odr dso_local void @_ZN20btAlignedObjectArrayIN6btDbvt6sStkNNEE4initEv(ptr noundef nonnull align 8 dereferenceable(25) %this) #1 comdat align 2 {
entry:
  %this.addr = alloca ptr, align 8
  store ptr %this, ptr %this.addr, align 8
  %this1 = load ptr, ptr %this.addr, align 8
  %m_ownsMemory = getelementptr inbounds %class.btAlignedObjectArray, ptr %this1, i32 0, i32 6
  store i8 1, ptr %m_ownsMemory, align 8
  %m_data = getelementptr inbounds %class.btAlignedObjectArray, ptr %this1, i32 0, i32 5
  store ptr null, ptr %m_data, align 8
  %m_size = getelementptr inbounds %class.btAlignedObjectArray, ptr %this1, i32 0, i32 2
  store i32 0, ptr %m_size, align 4
  %m_capacity = getelementptr inbounds %class.btAlignedObjectArray, ptr %this1, i32 0, i32 3
  store i32 0, ptr %m_capacity, align 8
  ret void
}

; Function Attrs: mustprogress uwtable
define linkonce_odr dso_local void @_ZN20btAlignedObjectArrayIN6btDbvt6sStkNNEE10deallocateEv(ptr noundef nonnull align 8 dereferenceable(25) %this) #2 comdat align 2 {
entry:
  %this.addr = alloca ptr, align 8
  store ptr %this, ptr %this.addr, align 8
  %this1 = load ptr, ptr %this.addr, align 8
  %m_data = getelementptr inbounds %class.btAlignedObjectArray, ptr %this1, i32 0, i32 5
  %0 = load ptr, ptr %m_data, align 8
  %tobool = icmp ne ptr %0, null
  br i1 %tobool, label %if.then, label %if.end6

if.then:                                          ; preds = %entry
  %m_ownsMemory = getelementptr inbounds %class.btAlignedObjectArray, ptr %this1, i32 0, i32 6
  %1 = load i8, ptr %m_ownsMemory, align 8
  %tobool2 = trunc i8 %1 to i1
  br i1 %tobool2, label %if.then3, label %if.end

if.then3:                                         ; preds = %if.then
  %m_allocator = getelementptr inbounds %class.btAlignedObjectArray, ptr %this1, i32 0, i32 0
  %m_data4 = getelementptr inbounds %class.btAlignedObjectArray, ptr %this1, i32 0, i32 5
  %2 = load ptr, ptr %m_data4, align 8
  call void @_ZN18btAlignedAllocatorIN6btDbvt6sStkNNELj16EE10deallocateEPS1_(ptr noundef nonnull align 1 dereferenceable(1) %m_allocator, ptr noundef %2)
  br label %if.end

if.end:                                           ; preds = %if.then3, %if.then
  %m_data5 = getelementptr inbounds %class.btAlignedObjectArray, ptr %this1, i32 0, i32 5
  store ptr null, ptr %m_data5, align 8
  br label %if.end6

if.end6:                                          ; preds = %if.end, %entry
  ret void
}

; Function Attrs: mustprogress nounwind uwtable
define linkonce_odr dso_local void @_ZN20btAlignedObjectArrayIN6btDbvt6sStkNNEE7destroyEii(ptr noundef nonnull align 8 dereferenceable(25) %this, i32 noundef %first, i32 noundef %last) #1 comdat align 2 {
entry:
  %this.addr = alloca ptr, align 8
  %first.addr = alloca i32, align 4
  %last.addr = alloca i32, align 4
  %i = alloca i32, align 4
  store ptr %this, ptr %this.addr, align 8
  store i32 %first, ptr %first.addr, align 4
  store i32 %last, ptr %last.addr, align 4
  %0 = load i32, ptr %first.addr, align 4
  store i32 %0, ptr %i, align 4
  br label %for.cond

for.cond:                                         ; preds = %for.inc, %entry
  %1 = load i32, ptr %i, align 4
  %2 = load i32, ptr %last.addr, align 4
  %cmp = icmp slt i32 %1, %2
  br i1 %cmp, label %for.body, label %for.end

for.body:                                         ; preds = %for.cond
  br label %for.inc

for.inc:                                          ; preds = %for.body
  %3 = load i32, ptr %i, align 4
  %inc = add nsw i32 %3, 1
  store i32 %inc, ptr %i, align 4
  br label %for.cond, !llvm.loop !30

for.end:                                          ; preds = %for.cond
  ret void
}

; Function Attrs: mustprogress nounwind uwtable
define linkonce_odr dso_local noundef i32 @_ZNK20btAlignedObjectArrayIN6btDbvt6sStkNNEE4sizeEv(ptr noundef nonnull align 8 dereferenceable(25) %this) #1 comdat align 2 {
entry:
  %this.addr = alloca ptr, align 8
  store ptr %this, ptr %this.addr, align 8
  %this1 = load ptr, ptr %this.addr, align 8
  %m_size = getelementptr inbounds %class.btAlignedObjectArray, ptr %this1, i32 0, i32 2
  %0 = load i32, ptr %m_size, align 4
  ret i32 %0
}

; Function Attrs: mustprogress uwtable
define linkonce_odr dso_local void @_ZN20btAlignedObjectArrayIN6btDbvt6sStkNNEE5clearEv(ptr noundef nonnull align 8 dereferenceable(25) %this) #2 comdat align 2 {
entry:
  %this.addr = alloca ptr, align 8
  store ptr %this, ptr %this.addr, align 8
  %this1 = load ptr, ptr %this.addr, align 8
  %call = call noundef i32 @_ZNK20btAlignedObjectArrayIN6btDbvt6sStkNNEE4sizeEv(ptr noundef nonnull align 8 dereferenceable(25) %this1)
  call void @_ZN20btAlignedObjectArrayIN6btDbvt6sStkNNEE7destroyEii(ptr noundef nonnull align 8 dereferenceable(25) %this1, i32 noundef 0, i32 noundef %call)
  call void @_ZN20btAlignedObjectArrayIN6btDbvt6sStkNNEE10deallocateEv(ptr noundef nonnull align 8 dereferenceable(25) %this1)
  call void @_ZN20btAlignedObjectArrayIN6btDbvt6sStkNNEE4initEv(ptr noundef nonnull align 8 dereferenceable(25) %this1)
  ret void
}

; Function Attrs: mustprogress uwtable
define dso_local void @_ZN6btDbvt5clearEv(ptr noundef nonnull align 8 dereferenceable(64) %this) #2 align 2 {
entry:
  %this.addr = alloca ptr, align 8
  store ptr %this, ptr %this.addr, align 8
  %this1 = load ptr, ptr %this.addr, align 8
  %m_root = getelementptr inbounds %struct.btDbvt, ptr %this1, i32 0, i32 0
  %0 = load ptr, ptr %m_root, align 8
  %tobool = icmp ne ptr %0, null
  br i1 %tobool, label %if.then, label %if.end

if.then:                                          ; preds = %entry
  %m_root2 = getelementptr inbounds %struct.btDbvt, ptr %this1, i32 0, i32 0
  %1 = load ptr, ptr %m_root2, align 8
  call void @_ZL17recursedeletenodeP6btDbvtP10btDbvtNode(ptr noundef %this1, ptr noundef %1)
  br label %if.end

if.end:                                           ; preds = %if.then, %entry
  %m_free = getelementptr inbounds %struct.btDbvt, ptr %this1, i32 0, i32 1
  %2 = load ptr, ptr %m_free, align 8
  call void @_Z21btAlignedFreeInternalPv(ptr noundef %2)
  %m_free3 = getelementptr inbounds %struct.btDbvt, ptr %this1, i32 0, i32 1
  store ptr null, ptr %m_free3, align 8
  %m_lkhd = getelementptr inbounds %struct.btDbvt, ptr %this1, i32 0, i32 2
  store i32 -1, ptr %m_lkhd, align 8
  %m_stkStack = getelementptr inbounds %struct.btDbvt, ptr %this1, i32 0, i32 6
  call void @_ZN20btAlignedObjectArrayIN6btDbvt6sStkNNEE5clearEv(ptr noundef nonnull align 8 dereferenceable(25) %m_stkStack)
  %m_opath = getelementptr inbounds %struct.btDbvt, ptr %this1, i32 0, i32 4
  store i32 0, ptr %m_opath, align 8
  ret void
}