; Function Attrs: mustprogress uwtable
define dso_local void @_ZN6btDbvt5clearEv(ptr noundef nonnull align 8 dereferenceable(64) %this) local_unnamed_addr #2 align 2 {
entry:
  %0 = load ptr, ptr %this, align 8
  %tobool.not = icmp eq ptr %0, null
  br i1 %tobool.not, label %if.end, label %if.then

if.then:                                          ; preds = %entry
  tail call fastcc void @_ZL17recursedeletenodeP6btDbvtP10btDbvtNode(ptr noundef nonnull %this, ptr noundef nonnull %0)
  br label %if.end

if.end:                                           ; preds = %if.then, %entry
  %m_free = getelementptr inbounds i8, ptr %this, i64 8
  %1 = load ptr, ptr %m_free, align 8
  tail call void @_Z21btAlignedFreeInternalPv(ptr noundef %1)
  store ptr null, ptr %m_free, align 8
  %m_lkhd = getelementptr inbounds i8, ptr %this, i64 16
  store i32 -1, ptr %m_lkhd, align 8
  %m_data.i.i = getelementptr inbounds i8, ptr %this, i64 48
  %2 = load ptr, ptr %m_data.i.i, align 8
  %tobool.not.i.i = icmp eq ptr %2, null
  br i1 %tobool.not.i.i, label %_ZN20btAlignedObjectArrayIN6btDbvt6sStkNNEE5clearEv.exit, label %if.then.i.i

if.then.i.i:                                      ; preds = %if.end
  %m_ownsMemory.i.i = getelementptr inbounds i8, ptr %this, i64 56
  %3 = load i8, ptr %m_ownsMemory.i.i, align 8
  %4 = and i8 %3, 1
  %tobool2.not.i.i = icmp eq i8 %4, 0
  br i1 %tobool2.not.i.i, label %_ZN20btAlignedObjectArrayIN6btDbvt6sStkNNEE5clearEv.exit, label %if.then3.i.i

if.then3.i.i:                                     ; preds = %if.then.i.i
  tail call void @_Z21btAlignedFreeInternalPv(ptr noundef nonnull %2)
  br label %_ZN20btAlignedObjectArrayIN6btDbvt6sStkNNEE5clearEv.exit

_ZN20btAlignedObjectArrayIN6btDbvt6sStkNNEE5clearEv.exit: ; preds = %if.end, %if.then.i.i, %if.then3.i.i
  %m_size.i.i = getelementptr inbounds i8, ptr %this, i64 36
  %m_ownsMemory.i1.i = getelementptr inbounds i8, ptr %this, i64 56
  store i8 1, ptr %m_ownsMemory.i1.i, align 8
  store ptr null, ptr %m_data.i.i, align 8
  store i32 0, ptr %m_size.i.i, align 4
  %m_capacity.i.i = getelementptr inbounds i8, ptr %this, i64 40
  store i32 0, ptr %m_capacity.i.i, align 8
  %m_opath = getelementptr inbounds i8, ptr %this, i64 24
  store i32 0, ptr %m_opath, align 8
  ret void
}